; Function Attrs: mustprogress uwtable
define noundef zeroext i1 @_ZN6google8protobuf2io16GzipOutputStream5FlushEv(ptr noundef nonnull align 8 dereferenceable(168) %this) local_unnamed_addr #3 align 2 {
entry:
  %call = tail call noundef i32 @_ZN6google8protobuf2io16GzipOutputStream7DeflateEi(ptr noundef nonnull align 8 dereferenceable(168) %this, i32 noundef 3)
  %zerror_ = getelementptr inbounds i8, ptr %this, i64 144
  store i32 %call, ptr %zerror_, align 8
  switch i32 %call, label %lor.end.fold.split [
    i32 0, label %lor.end
    i32 -5, label %land.lhs.true
  ]

land.lhs.true:                                    ; preds = %entry
  %avail_in = getelementptr inbounds i8, ptr %this, i64 40
  %0 = load i32, ptr %avail_in, align 8
  %cmp5 = icmp eq i32 %0, 0
  br i1 %cmp5, label %land.rhs, label %lor.end

land.rhs:                                         ; preds = %land.lhs.true
  %avail_out = getelementptr inbounds i8, ptr %this, i64 64
  %1 = load i32, ptr %avail_out, align 8
  %cmp7 = icmp ne i32 %1, 0
  br label %lor.end

lor.end.fold.split:                               ; preds = %entry
  br label %lor.end

lor.end:                                          ; preds = %entry, %lor.end.fold.split, %land.lhs.true, %land.rhs
  %2 = phi i1 [ true, %entry ], [ false, %land.lhs.true ], [ %cmp7, %land.rhs ], [ false, %lor.end.fold.split ]
  ret i1 %2
}